target datalayout = "e-m:e-p270:32:32-p271:32:32-p272:64:64-i64:64-i128:128-f80:128-n8:16:32:64-S128"
target triple = "x86_64-unknown-linux-gnu"

@acpi_gbl_hex_to_ascii = internal unnamed_addr constant [16 x i8] c"0123456789ABCDEF", align 16
@_ctype = external dso_local local_unnamed_addr constant [0 x i8], align 1

; Function Attrs: fn_ret_thunk_extern nounwind null_pointer_is_valid
define dso_local zeroext i8 @acpi_ut_hex_to_ascii_char(i64 noundef %0, i32 noundef %1) local_unnamed_addr #0 align 16 {
  %3 = alloca i64, align 8
  call void @llvm.lifetime.start.p0(i64 8, ptr nonnull %3) #5
  store i64 0, ptr %3, align 8, !annotation !5
  %4 = call i32 @acpi_ut_short_shift_right(i64 noundef %0, i32 noundef %1, ptr noundef nonnull %3) #5
  %5 = load i64, ptr %3, align 8
  %6 = and i64 %5, 15
  %7 = getelementptr [16 x i8], ptr @acpi_gbl_hex_to_ascii, i64 0, i64 %6
  %8 = load i8, ptr %7, align 1
  call void @llvm.lifetime.end.p0(i64 8, ptr nonnull %3) #5
  ret i8 %8
}

; Function Attrs: nocallback nofree nosync nounwind willreturn memory(argmem: readwrite)
declare void @llvm.lifetime.start.p0(i64 immarg, ptr nocapture) #1

; Function Attrs: null_pointer_is_valid
declare dso_local i32 @acpi_ut_short_shift_right(i64 noundef, i32 noundef, ptr noundef) local_unnamed_addr #2

; Function Attrs: nocallback nofree nosync nounwind willreturn memory(argmem: readwrite)
declare void @llvm.lifetime.end.p0(i64 immarg, ptr nocapture) #1

; Function Attrs: fn_ret_thunk_extern mustprogress nofree norecurse nosync nounwind null_pointer_is_valid willreturn memory(argmem: readwrite)
define dso_local noundef i32 @acpi_ut_ascii_to_hex_byte(ptr nocapture noundef readonly %0, ptr nocapture noundef writeonly %1) local_unnamed_addr #3 align 16 {
  %3 = load i8, ptr %0, align 1
  %4 = zext i8 %3 to i64
  %5 = getelementptr [0 x i8], ptr @_ctype, i64 0, i64 %4
  %6 = load i8, ptr %5, align 1
  %7 = and i8 %6, 68
  %8 = icmp eq i8 %7, 0
  br i1 %8, label %28, label %9

9:                                                ; preds = %2
  %10 = getelementptr i8, ptr %0, i64 1
  %11 = load i8, ptr %10, align 1
  %12 = zext i8 %11 to i64
  %13 = getelementptr [0 x i8], ptr @_ctype, i64 0, i64 %12
  %14 = load i8, ptr %13, align 1
  %15 = and i8 %14, 68
  %16 = icmp eq i8 %15, 0
  br i1 %16, label %28, label %17

17:                                               ; preds = %9
  %18 = icmp ult i8 %11, 58
  %19 = icmp ult i8 %11, 71
  %20 = select i1 %19, i8 -55, i8 -87
  %21 = select i1 %18, i8 -48, i8 %20
  %22 = add i8 %11, %21
  %23 = icmp ult i8 %3, 58
  %24 = select i1 %23, i8 0, i8 9
  %25 = add i8 %3, %24
  %26 = shl i8 %25, 4
  %27 = or i8 %26, %22
  store i8 %27, ptr %1, align 1
  br label %28

28:                                               ; preds = %17, %9, %2
  %29 = phi i32 [ 0, %17 ], [ 4101, %9 ], [ 4101, %2 ]
  ret i32 %29
}

; Function Attrs: fn_ret_thunk_extern mustprogress nofree norecurse nosync nounwind null_pointer_is_valid willreturn memory(none)
define dso_local noundef zeroext i8 @acpi_ut_ascii_char_to_hex(i32 noundef %0) local_unnamed_addr #4 align 16 {
  %2 = icmp slt i32 %0, 58
  br i1 %2, label %3, label %6

3:                                                ; preds = %1
  %4 = trunc i32 %0 to i8
  %5 = add i8 %4, -48
  br label %13

6:                                                ; preds = %1
  %7 = icmp slt i32 %0, 71
  %8 = trunc i32 %0 to i8
  br i1 %7, label %9, label %11

9:                                                ; preds = %6
  %10 = add i8 %8, -55
  br label %13

11:                                               ; preds = %6
  %12 = add i8 %8, -87
  br label %13

13:                                               ; preds = %11, %9, %3
  %14 = phi i8 [ %5, %3 ], [ %10, %9 ], [ %12, %11 ]
  ret i8 %14
}


!llvm.module.flags = !{!0, !1, !2, !3, !4}

!0 = !{i32 1, !"wchar_size", i32 2}
!1 = !{i32 8, !"cf-protection-branch", i32 1}
!2 = !{i32 4, !"function_return_thunk_extern", i32 1}
!3 = !{i32 4, !"indirect_branch_cs_prefix", i32 1}
!4 = !{i32 4, !"SkipRaxSetup", i32 1}
!5 = !{!"auto-init"}
